target datalayout = "e-m:e-p270:32:32-p271:32:32-p272:64:64-i64:64-i128:128-f80:128-n8:16:32:64-S128"
target triple = "x86_64-pc-linux-gnu"

%"class.ncnn::Mat" = type { ptr, ptr, i64, i32, ptr, i32, i32, i32, i32, i32, i64 }
%"class.ncnn::ModelBin" = type { ptr }
%"class.ncnn::ModelBinFromMatArray" = type { %"class.ncnn::ModelBin", ptr }
%"class.ncnn::ModelBinFromMatArrayPrivate" = type { ptr }

; Function Attrs: noreturn nounwind uwtable
define linkonce_odr hidden void @__clang_call_terminate(ptr noundef %0) #7 comdat {
  %2 = call ptr @__cxa_begin_catch(ptr %0) #10
  call void @_ZSt9terminatev() #12
  unreachable
}

; Function Attrs: mustprogress uwtable
define hidden void @_ZNK4ncnn20ModelBinFromMatArray4loadEii(ptr dead_on_unwind noalias writable sret(%"class.ncnn::Mat") align 8 %0, ptr noundef nonnull align 8 dereferenceable(16) %1, i32 noundef %2, i32 noundef %3) unnamed_addr #2 align 2 personality ptr @__gxx_personality_v0 {
  %5 = alloca ptr, align 8
  %6 = alloca ptr, align 8
  %7 = alloca i32, align 4
  %8 = alloca i32, align 4
  %9 = alloca ptr, align 8
  %10 = alloca i32, align 4
  %11 = alloca i32, align 4
  %12 = alloca ptr, align 8
  %13 = alloca ptr, align 8
  %14 = alloca ptr, align 8
  %15 = alloca ptr, align 8
  %16 = alloca ptr, align 8
  %17 = alloca ptr, align 8
  %18 = alloca i32, align 4
  %19 = alloca i32, align 4
  %20 = alloca i1, align 1
  store ptr %0, ptr %16, align 8
  store ptr %1, ptr %17, align 8
  store i32 %2, ptr %18, align 4
  store i32 %3, ptr %19, align 4
  %21 = load ptr, ptr %17, align 8
  %22 = getelementptr inbounds nuw %"class.ncnn::ModelBinFromMatArray", ptr %21, i32 0, i32 1
  %23 = load ptr, ptr %22, align 8
  %24 = getelementptr inbounds nuw %"class.ncnn::ModelBinFromMatArrayPrivate", ptr %23, i32 0, i32 0
  %25 = load ptr, ptr %24, align 8
  %26 = icmp ne ptr %25, null
  br i1 %26, label %39, label %27

27:                                               ; preds = %4
  store ptr %0, ptr %15, align 8
  %28 = load ptr, ptr %15, align 8
  store ptr null, ptr %28, align 8
  %29 = getelementptr inbounds nuw %"class.ncnn::Mat", ptr %28, i32 0, i32 1
  store ptr null, ptr %29, align 8
  %30 = getelementptr inbounds nuw %"class.ncnn::Mat", ptr %28, i32 0, i32 2
  store i64 0, ptr %30, align 8
  %31 = getelementptr inbounds nuw %"class.ncnn::Mat", ptr %28, i32 0, i32 3
  store i32 0, ptr %31, align 8
  %32 = getelementptr inbounds nuw %"class.ncnn::Mat", ptr %28, i32 0, i32 4
  store ptr null, ptr %32, align 8
  %33 = getelementptr inbounds nuw %"class.ncnn::Mat", ptr %28, i32 0, i32 5
  store i32 0, ptr %33, align 8
  %34 = getelementptr inbounds nuw %"class.ncnn::Mat", ptr %28, i32 0, i32 6
  store i32 0, ptr %34, align 4
  %35 = getelementptr inbounds nuw %"class.ncnn::Mat", ptr %28, i32 0, i32 7
  store i32 0, ptr %35, align 8
  %36 = getelementptr inbounds nuw %"class.ncnn::Mat", ptr %28, i32 0, i32 8
  store i32 0, ptr %36, align 4
  %37 = getelementptr inbounds nuw %"class.ncnn::Mat", ptr %28, i32 0, i32 9
  store i32 0, ptr %37, align 8
  %38 = getelementptr inbounds nuw %"class.ncnn::Mat", ptr %28, i32 0, i32 10
  store i64 0, ptr %38, align 8
  br label %152

39:                                               ; preds = %4
  store i1 false, ptr %20, align 1
  %40 = getelementptr inbounds nuw %"class.ncnn::ModelBinFromMatArray", ptr %21, i32 0, i32 1
  %41 = load ptr, ptr %40, align 8
  %42 = getelementptr inbounds nuw %"class.ncnn::ModelBinFromMatArrayPrivate", ptr %41, i32 0, i32 0
  %43 = load ptr, ptr %42, align 8
  %44 = getelementptr inbounds %"class.ncnn::Mat", ptr %43, i64 0
  store ptr %0, ptr %13, align 8
  store ptr %44, ptr %14, align 8
  %45 = load ptr, ptr %13, align 8
  %46 = load ptr, ptr %14, align 8
  %47 = load ptr, ptr %46, align 8
  store ptr %47, ptr %45, align 8
  %48 = getelementptr inbounds nuw %"class.ncnn::Mat", ptr %45, i32 0, i32 1
  %49 = load ptr, ptr %14, align 8
  %50 = getelementptr inbounds nuw %"class.ncnn::Mat", ptr %49, i32 0, i32 1
  %51 = load ptr, ptr %50, align 8
  store ptr %51, ptr %48, align 8
  %52 = getelementptr inbounds nuw %"class.ncnn::Mat", ptr %45, i32 0, i32 2
  %53 = load ptr, ptr %14, align 8
  %54 = getelementptr inbounds nuw %"class.ncnn::Mat", ptr %53, i32 0, i32 2
  %55 = load i64, ptr %54, align 8
  store i64 %55, ptr %52, align 8
  %56 = getelementptr inbounds nuw %"class.ncnn::Mat", ptr %45, i32 0, i32 3
  %57 = load ptr, ptr %14, align 8
  %58 = getelementptr inbounds nuw %"class.ncnn::Mat", ptr %57, i32 0, i32 3
  %59 = load i32, ptr %58, align 8
  store i32 %59, ptr %56, align 8
  %60 = getelementptr inbounds nuw %"class.ncnn::Mat", ptr %45, i32 0, i32 4
  %61 = load ptr, ptr %14, align 8
  %62 = getelementptr inbounds nuw %"class.ncnn::Mat", ptr %61, i32 0, i32 4
  %63 = load ptr, ptr %62, align 8
  store ptr %63, ptr %60, align 8
  %64 = getelementptr inbounds nuw %"class.ncnn::Mat", ptr %45, i32 0, i32 5
  %65 = load ptr, ptr %14, align 8
  %66 = getelementptr inbounds nuw %"class.ncnn::Mat", ptr %65, i32 0, i32 5
  %67 = load i32, ptr %66, align 8
  store i32 %67, ptr %64, align 8
  %68 = getelementptr inbounds nuw %"class.ncnn::Mat", ptr %45, i32 0, i32 6
  %69 = load ptr, ptr %14, align 8
  %70 = getelementptr inbounds nuw %"class.ncnn::Mat", ptr %69, i32 0, i32 6
  %71 = load i32, ptr %70, align 4
  store i32 %71, ptr %68, align 4
  %72 = getelementptr inbounds nuw %"class.ncnn::Mat", ptr %45, i32 0, i32 7
  %73 = load ptr, ptr %14, align 8
  %74 = getelementptr inbounds nuw %"class.ncnn::Mat", ptr %73, i32 0, i32 7
  %75 = load i32, ptr %74, align 8
  store i32 %75, ptr %72, align 8
  %76 = getelementptr inbounds nuw %"class.ncnn::Mat", ptr %45, i32 0, i32 8
  %77 = load ptr, ptr %14, align 8
  %78 = getelementptr inbounds nuw %"class.ncnn::Mat", ptr %77, i32 0, i32 8
  %79 = load i32, ptr %78, align 4
  store i32 %79, ptr %76, align 4
  %80 = getelementptr inbounds nuw %"class.ncnn::Mat", ptr %45, i32 0, i32 9
  %81 = load ptr, ptr %14, align 8
  %82 = getelementptr inbounds nuw %"class.ncnn::Mat", ptr %81, i32 0, i32 9
  %83 = load i32, ptr %82, align 8
  store i32 %83, ptr %80, align 8
  %84 = getelementptr inbounds nuw %"class.ncnn::Mat", ptr %45, i32 0, i32 10
  %85 = load ptr, ptr %14, align 8
  %86 = getelementptr inbounds nuw %"class.ncnn::Mat", ptr %85, i32 0, i32 10
  %87 = load i64, ptr %86, align 8
  store i64 %87, ptr %84, align 8
  store ptr %45, ptr %9, align 8
  %88 = load ptr, ptr %9, align 8
  %89 = getelementptr inbounds nuw %"class.ncnn::Mat", ptr %88, i32 0, i32 1
  %90 = load ptr, ptr %89, align 8
  %91 = icmp ne ptr %90, null
  br i1 %91, label %92, label %97

92:                                               ; preds = %39
  %93 = getelementptr inbounds nuw %"class.ncnn::Mat", ptr %88, i32 0, i32 1
  %94 = load ptr, ptr %93, align 8
  store i32 1, ptr %10, align 4
  %95 = load i32, ptr %10, align 4
  %96 = atomicrmw add ptr %94, i32 %95 acq_rel, align 4
  store i32 %96, ptr %11, align 4
  br label %97

97:                                               ; preds = %92, %39
  %98 = getelementptr inbounds nuw %"class.ncnn::ModelBinFromMatArray", ptr %21, i32 0, i32 1
  %99 = load ptr, ptr %98, align 8
  %100 = getelementptr inbounds nuw %"class.ncnn::ModelBinFromMatArrayPrivate", ptr %99, i32 0, i32 0
  %101 = load ptr, ptr %100, align 8
  %102 = getelementptr inbounds %"class.ncnn::Mat", ptr %101, i32 1
  store ptr %102, ptr %100, align 8
  store i1 true, ptr %20, align 1
  %103 = load i1, ptr %20, align 1
  br i1 %103, label %151, label %104

104:                                              ; preds = %97
  store ptr %0, ptr %12, align 8
  %105 = load ptr, ptr %12, align 8
  store ptr %105, ptr %6, align 8
  %106 = load ptr, ptr %6, align 8
  %107 = getelementptr inbounds nuw %"class.ncnn::Mat", ptr %106, i32 0, i32 1
  %108 = load ptr, ptr %107, align 8
  %109 = icmp ne ptr %108, null
  br i1 %109, label %110, label %137

110:                                              ; preds = %104
  %111 = getelementptr inbounds nuw %"class.ncnn::Mat", ptr %106, i32 0, i32 1
  %112 = load ptr, ptr %111, align 8
  store i32 -1, ptr %7, align 4
  %113 = load i32, ptr %7, align 4
  %114 = atomicrmw add ptr %112, i32 %113 acq_rel, align 4
  store i32 %114, ptr %8, align 4
  %115 = load i32, ptr %8, align 4
  %116 = icmp eq i32 %115, 1
  br i1 %116, label %117, label %137

117:                                              ; preds = %110
  %118 = getelementptr inbounds nuw %"class.ncnn::Mat", ptr %106, i32 0, i32 4
  %119 = load ptr, ptr %118, align 8
  %120 = icmp ne ptr %119, null
  br i1 %120, label %121, label %129

121:                                              ; preds = %117
  %122 = getelementptr inbounds nuw %"class.ncnn::Mat", ptr %106, i32 0, i32 4
  %123 = load ptr, ptr %122, align 8
  %124 = load ptr, ptr %106, align 8
  %125 = load ptr, ptr %123, align 8
  %126 = getelementptr inbounds ptr, ptr %125, i64 3
  %127 = load ptr, ptr %126, align 8
  invoke void %127(ptr noundef nonnull align 8 dereferenceable(8) %123, ptr noundef %124)
          to label %128 unwind label %147

128:                                              ; preds = %121
  br label %136

129:                                              ; preds = %117
  %130 = load ptr, ptr %106, align 8
  store ptr %130, ptr %5, align 8
  %131 = load ptr, ptr %5, align 8
  %132 = icmp ne ptr %131, null
  br i1 %132, label %133, label %135

133:                                              ; preds = %129
  %134 = load ptr, ptr %5, align 8
  call void @free(ptr noundef %134) #10
  br label %135

135:                                              ; preds = %133, %129
  br label %136

136:                                              ; preds = %135, %128
  br label %137

137:                                              ; preds = %136, %110, %104
  store ptr null, ptr %106, align 8
  %138 = getelementptr inbounds nuw %"class.ncnn::Mat", ptr %106, i32 0, i32 2
  store i64 0, ptr %138, align 8
  %139 = getelementptr inbounds nuw %"class.ncnn::Mat", ptr %106, i32 0, i32 3
  store i32 0, ptr %139, align 8
  %140 = getelementptr inbounds nuw %"class.ncnn::Mat", ptr %106, i32 0, i32 5
  store i32 0, ptr %140, align 8
  %141 = getelementptr inbounds nuw %"class.ncnn::Mat", ptr %106, i32 0, i32 6
  store i32 0, ptr %141, align 4
  %142 = getelementptr inbounds nuw %"class.ncnn::Mat", ptr %106, i32 0, i32 7
  store i32 0, ptr %142, align 8
  %143 = getelementptr inbounds nuw %"class.ncnn::Mat", ptr %106, i32 0, i32 8
  store i32 0, ptr %143, align 4
  %144 = getelementptr inbounds nuw %"class.ncnn::Mat", ptr %106, i32 0, i32 9
  store i32 0, ptr %144, align 8
  %145 = getelementptr inbounds nuw %"class.ncnn::Mat", ptr %106, i32 0, i32 10
  store i64 0, ptr %145, align 8
  %146 = getelementptr inbounds nuw %"class.ncnn::Mat", ptr %106, i32 0, i32 1
  store ptr null, ptr %146, align 8
  br label %150

147:                                              ; preds = %121
  %148 = landingpad { ptr, i32 }
          catch ptr null
  %149 = extractvalue { ptr, i32 } %148, 0
  call void @__clang_call_terminate(ptr %149) #12
  unreachable

150:                                              ; preds = %137
  br label %151

151:                                              ; preds = %150, %97
  br label %152

152:                                              ; preds = %151, %27
  ret void
}