; Function Attrs: mustprogress nofree norecurse nounwind willreturn memory(readwrite, inaccessiblemem: none) uwtable
define hidden void @_ZNK4ncnn20ModelBinFromMatArray4loadEii(ptr dead_on_unwind noalias nocapture writable writeonly sret(%"class.ncnn::Mat") align 8 %0, ptr nocapture noundef nonnull readonly align 8 dereferenceable(16) %1, i32 %2, i32 %3) unnamed_addr #9 align 2 personality ptr @__gxx_personality_v0 {
  %5 = getelementptr inbounds nuw i8, ptr %1, i64 8
  %6 = load ptr, ptr %5, align 8
  %7 = load ptr, ptr %6, align 8
  %.not = icmp eq ptr %7, null
  br i1 %.not, label %8, label %11

8:                                                ; preds = %4
  %9 = getelementptr inbounds nuw i8, ptr %0, i64 32
  %10 = getelementptr inbounds nuw i8, ptr %0, i64 64
  store i64 0, ptr %10, align 8
  tail call void @llvm.memset.p0.i64(ptr noundef nonnull align 8 dereferenceable(28) %0, i8 0, i64 28, i1 false)
  tail call void @llvm.memset.p0.i64(ptr noundef nonnull align 8 dereferenceable(28) %9, i8 0, i64 28, i1 false)
  br label %49

11:                                               ; preds = %4
  %12 = load ptr, ptr %7, align 8
  store ptr %12, ptr %0, align 8
  %13 = getelementptr inbounds nuw i8, ptr %0, i64 8
  %14 = getelementptr inbounds nuw i8, ptr %7, i64 8
  %15 = load ptr, ptr %14, align 8
  store ptr %15, ptr %13, align 8
  %16 = getelementptr inbounds nuw i8, ptr %0, i64 16
  %17 = getelementptr inbounds nuw i8, ptr %7, i64 16
  %18 = load i64, ptr %17, align 8
  store i64 %18, ptr %16, align 8
  %19 = getelementptr inbounds nuw i8, ptr %0, i64 24
  %20 = getelementptr inbounds nuw i8, ptr %7, i64 24
  %21 = load i32, ptr %20, align 8
  store i32 %21, ptr %19, align 8
  %22 = getelementptr inbounds nuw i8, ptr %0, i64 32
  %23 = getelementptr inbounds nuw i8, ptr %7, i64 32
  %24 = load ptr, ptr %23, align 8
  store ptr %24, ptr %22, align 8
  %25 = getelementptr inbounds nuw i8, ptr %0, i64 40
  %26 = getelementptr inbounds nuw i8, ptr %7, i64 40
  %27 = load i32, ptr %26, align 8
  store i32 %27, ptr %25, align 8
  %28 = getelementptr inbounds nuw i8, ptr %0, i64 44
  %29 = getelementptr inbounds nuw i8, ptr %7, i64 44
  %30 = load i32, ptr %29, align 4
  store i32 %30, ptr %28, align 4
  %31 = getelementptr inbounds nuw i8, ptr %0, i64 48
  %32 = getelementptr inbounds nuw i8, ptr %7, i64 48
  %33 = load i32, ptr %32, align 8
  store i32 %33, ptr %31, align 8
  %34 = getelementptr inbounds nuw i8, ptr %0, i64 52
  %35 = getelementptr inbounds nuw i8, ptr %7, i64 52
  %36 = load i32, ptr %35, align 4
  store i32 %36, ptr %34, align 4
  %37 = getelementptr inbounds nuw i8, ptr %0, i64 56
  %38 = getelementptr inbounds nuw i8, ptr %7, i64 56
  %39 = load i32, ptr %38, align 8
  store i32 %39, ptr %37, align 8
  %40 = getelementptr inbounds nuw i8, ptr %0, i64 64
  %41 = getelementptr inbounds nuw i8, ptr %7, i64 64
  %42 = load i64, ptr %41, align 8
  store i64 %42, ptr %40, align 8
  %.not26 = icmp eq ptr %15, null
  br i1 %.not26, label %45, label %43

43:                                               ; preds = %11
  %44 = atomicrmw add ptr %15, i32 1 acq_rel, align 4
  %.pre = load ptr, ptr %5, align 8
  %.pre27 = load ptr, ptr %.pre, align 8
  br label %45

45:                                               ; preds = %43, %11
  %46 = phi ptr [ %.pre27, %43 ], [ %7, %11 ]
  %47 = phi ptr [ %.pre, %43 ], [ %6, %11 ]
  %48 = getelementptr inbounds i8, ptr %46, i64 72
  store ptr %48, ptr %47, align 8
  br label %49

49:                                               ; preds = %45, %8
  ret void
}